target datalayout = "e-m:e-p270:32:32-p271:32:32-p272:64:64-i64:64-i128:128-f80:128-n8:16:32:64-S128"
target triple = "x86_64-pc-linux-gnu"

%struct.ExprContext = type { i32, ptr, ptr, ptr, ptr, ptr, ptr, ptr, ptr, ptr, i64, i8, i64, i8, ptr, ptr, ptr, ptr }
%struct.ScanKeyData = type { i32, i16, i16, i32, i32, %struct.FmgrInfo, i64 }
%struct.FmgrInfo = type { ptr, i32, i16, i8, i8, i8, ptr, ptr, ptr }
%struct.ExprState = type { i32, i8, i8, i64, ptr, ptr, ptr, ptr, ptr, i32, i32, ptr, ptr, ptr, ptr, ptr, ptr, ptr }
%struct.IndexArrayKeyInfo = type { ptr, ptr, i32, i32, ptr, ptr }
%struct.ArrayType = type { i32, i32, i32, i32 }

@CurrentMemoryContext = external global ptr, align 8

; Function Attrs: inlinehint nounwind uwtable
define internal ptr @DatumGetPointer(i64 noundef %0) #3 {
  %2 = alloca i64, align 8
  store i64 %0, ptr %2, align 8
  %3 = load i64, ptr %2, align 8
  %4 = inttoptr i64 %3 to ptr
  ret ptr %4
}

; Function Attrs: inlinehint nounwind uwtable
define internal i64 @ExecEvalExpr(ptr noundef %0, ptr noundef %1, ptr noundef %2) #3 {
  %4 = alloca ptr, align 8
  %5 = alloca ptr, align 8
  %6 = alloca ptr, align 8
  store ptr %0, ptr %4, align 8
  store ptr %1, ptr %5, align 8
  store ptr %2, ptr %6, align 8
  %7 = load ptr, ptr %4, align 8
  %8 = getelementptr inbounds nuw %struct.ExprState, ptr %7, i32 0, i32 6
  %9 = load ptr, ptr %8, align 8
  %10 = load ptr, ptr %4, align 8
  %11 = load ptr, ptr %5, align 8
  %12 = load ptr, ptr %6, align 8
  %13 = call i64 %9(ptr noundef %10, ptr noundef %11, ptr noundef %12)
  ret i64 %13
}

; Function Attrs: inlinehint nounwind uwtable
define internal ptr @MemoryContextSwitchTo(ptr noundef %0) #3 {
  %2 = alloca ptr, align 8
  %3 = alloca ptr, align 8
  store ptr %0, ptr %2, align 8
  call void @llvm.lifetime.start.p0(i64 8, ptr %3) #7
  %4 = load ptr, ptr @CurrentMemoryContext, align 8
  store ptr %4, ptr %3, align 8
  %5 = load ptr, ptr %2, align 8
  store ptr %5, ptr @CurrentMemoryContext, align 8
  %6 = load ptr, ptr %3, align 8
  call void @llvm.lifetime.end.p0(i64 8, ptr %3) #7
  ret ptr %6
}

; Function Attrs: nounwind uwtable
define dso_local zeroext i1 @ExecIndexEvalArrayKeys(ptr noundef %0, ptr noundef %1, i32 noundef %2) #0 {
  %4 = alloca ptr, align 8
  %5 = alloca ptr, align 8
  %6 = alloca i32, align 4
  %7 = alloca i8, align 1
  %8 = alloca i32, align 4
  %9 = alloca ptr, align 8
  %10 = alloca ptr, align 8
  %11 = alloca ptr, align 8
  %12 = alloca i64, align 8
  %13 = alloca i8, align 1
  %14 = alloca ptr, align 8
  %15 = alloca i16, align 2
  %16 = alloca i8, align 1
  %17 = alloca i8, align 1
  %18 = alloca i32, align 4
  %19 = alloca ptr, align 8
  %20 = alloca ptr, align 8
  %21 = alloca i32, align 4
  store ptr %0, ptr %4, align 8
  store ptr %1, ptr %5, align 8
  store i32 %2, ptr %6, align 4
  call void @llvm.lifetime.start.p0(i64 1, ptr %7) #7
  store i8 1, ptr %7, align 1
  call void @llvm.lifetime.start.p0(i64 4, ptr %8) #7
  call void @llvm.lifetime.start.p0(i64 8, ptr %9) #7
  %22 = load ptr, ptr %4, align 8
  %23 = getelementptr inbounds nuw %struct.ExprContext, ptr %22, i32 0, i32 5
  %24 = load ptr, ptr %23, align 8
  %25 = call ptr @MemoryContextSwitchTo(ptr noundef %24)
  store ptr %25, ptr %9, align 8
  store i32 0, ptr %8, align 4
  br label %26

26:                                               ; preds = %115, %3
  %27 = load i32, ptr %8, align 4
  %28 = load i32, ptr %6, align 4
  %29 = icmp slt i32 %27, %28
  br i1 %29, label %30, label %118

30:                                               ; preds = %26
  call void @llvm.lifetime.start.p0(i64 8, ptr %10) #7
  %31 = load ptr, ptr %5, align 8
  %32 = load i32, ptr %8, align 4
  %33 = sext i32 %32 to i64
  %34 = getelementptr inbounds %struct.IndexArrayKeyInfo, ptr %31, i64 %33
  %35 = getelementptr inbounds nuw %struct.IndexArrayKeyInfo, ptr %34, i32 0, i32 0
  %36 = load ptr, ptr %35, align 8
  store ptr %36, ptr %10, align 8
  call void @llvm.lifetime.start.p0(i64 8, ptr %11) #7
  %37 = load ptr, ptr %5, align 8
  %38 = load i32, ptr %8, align 4
  %39 = sext i32 %38 to i64
  %40 = getelementptr inbounds %struct.IndexArrayKeyInfo, ptr %37, i64 %39
  %41 = getelementptr inbounds nuw %struct.IndexArrayKeyInfo, ptr %40, i32 0, i32 1
  %42 = load ptr, ptr %41, align 8
  store ptr %42, ptr %11, align 8
  call void @llvm.lifetime.start.p0(i64 8, ptr %12) #7
  call void @llvm.lifetime.start.p0(i64 1, ptr %13) #7
  call void @llvm.lifetime.start.p0(i64 8, ptr %14) #7
  call void @llvm.lifetime.start.p0(i64 2, ptr %15) #7
  call void @llvm.lifetime.start.p0(i64 1, ptr %16) #7
  call void @llvm.lifetime.start.p0(i64 1, ptr %17) #7
  call void @llvm.lifetime.start.p0(i64 4, ptr %18) #7
  call void @llvm.lifetime.start.p0(i64 8, ptr %19) #7
  call void @llvm.lifetime.start.p0(i64 8, ptr %20) #7
  %43 = load ptr, ptr %11, align 8
  %44 = load ptr, ptr %4, align 8
  %45 = call i64 @ExecEvalExpr(ptr noundef %43, ptr noundef %44, ptr noundef %13)
  store i64 %45, ptr %12, align 8
  %46 = load i8, ptr %13, align 1, !range !6, !noundef !7
  %47 = trunc i8 %46 to i1
  br i1 %47, label %48, label %49

48:                                               ; preds = %30
  store i8 0, ptr %7, align 1
  store i32 2, ptr %21, align 4
  br label %112

49:                                               ; preds = %30
  %50 = load i64, ptr %12, align 8
  %51 = call ptr @DatumGetPointer(i64 noundef %50)
  %52 = call ptr @pg_detoast_datum(ptr noundef %51)
  store ptr %52, ptr %14, align 8
  %53 = load ptr, ptr %14, align 8
  %54 = getelementptr inbounds nuw %struct.ArrayType, ptr %53, i32 0, i32 3
  %55 = load i32, ptr %54, align 4
  call void @get_typlenbyvalalign(i32 noundef %55, ptr noundef %15, ptr noundef %16, ptr noundef %17)
  %56 = load ptr, ptr %14, align 8
  %57 = load ptr, ptr %14, align 8
  %58 = getelementptr inbounds nuw %struct.ArrayType, ptr %57, i32 0, i32 3
  %59 = load i32, ptr %58, align 4
  %60 = load i16, ptr %15, align 2
  %61 = sext i16 %60 to i32
  %62 = load i8, ptr %16, align 1, !range !6, !noundef !7
  %63 = trunc i8 %62 to i1
  %64 = load i8, ptr %17, align 1
  call void @deconstruct_array(ptr noundef %56, i32 noundef %59, i32 noundef %61, i1 noundef zeroext %63, i8 noundef signext %64, ptr noundef %19, ptr noundef %20, ptr noundef %18)
  %65 = load i32, ptr %18, align 4
  %66 = icmp sle i32 %65, 0
  br i1 %66, label %67, label %68

67:                                               ; preds = %49
  store i8 0, ptr %7, align 1
  store i32 2, ptr %21, align 4
  br label %112

68:                                               ; preds = %49
  %69 = load ptr, ptr %19, align 8
  %70 = load ptr, ptr %5, align 8
  %71 = load i32, ptr %8, align 4
  %72 = sext i32 %71 to i64
  %73 = getelementptr inbounds %struct.IndexArrayKeyInfo, ptr %70, i64 %72
  %74 = getelementptr inbounds nuw %struct.IndexArrayKeyInfo, ptr %73, i32 0, i32 4
  store ptr %69, ptr %74, align 8
  %75 = load ptr, ptr %20, align 8
  %76 = load ptr, ptr %5, align 8
  %77 = load i32, ptr %8, align 4
  %78 = sext i32 %77 to i64
  %79 = getelementptr inbounds %struct.IndexArrayKeyInfo, ptr %76, i64 %78
  %80 = getelementptr inbounds nuw %struct.IndexArrayKeyInfo, ptr %79, i32 0, i32 5
  store ptr %75, ptr %80, align 8
  %81 = load i32, ptr %18, align 4
  %82 = load ptr, ptr %5, align 8
  %83 = load i32, ptr %8, align 4
  %84 = sext i32 %83 to i64
  %85 = getelementptr inbounds %struct.IndexArrayKeyInfo, ptr %82, i64 %84
  %86 = getelementptr inbounds nuw %struct.IndexArrayKeyInfo, ptr %85, i32 0, i32 3
  store i32 %81, ptr %86, align 4
  %87 = load ptr, ptr %19, align 8
  %88 = getelementptr inbounds i64, ptr %87, i64 0
  %89 = load i64, ptr %88, align 8
  %90 = load ptr, ptr %10, align 8
  %91 = getelementptr inbounds nuw %struct.ScanKeyData, ptr %90, i32 0, i32 6
  store i64 %89, ptr %91, align 8
  %92 = load ptr, ptr %20, align 8
  %93 = getelementptr inbounds i8, ptr %92, i64 0
  %94 = load i8, ptr %93, align 1, !range !6, !noundef !7
  %95 = trunc i8 %94 to i1
  br i1 %95, label %96, label %101

96:                                               ; preds = %68
  %97 = load ptr, ptr %10, align 8
  %98 = getelementptr inbounds nuw %struct.ScanKeyData, ptr %97, i32 0, i32 0
  %99 = load i32, ptr %98, align 8
  %100 = or i32 %99, 1
  store i32 %100, ptr %98, align 8
  br label %106

101:                                              ; preds = %68
  %102 = load ptr, ptr %10, align 8
  %103 = getelementptr inbounds nuw %struct.ScanKeyData, ptr %102, i32 0, i32 0
  %104 = load i32, ptr %103, align 8
  %105 = and i32 %104, -2
  store i32 %105, ptr %103, align 8
  br label %106

106:                                              ; preds = %101, %96
  %107 = load ptr, ptr %5, align 8
  %108 = load i32, ptr %8, align 4
  %109 = sext i32 %108 to i64
  %110 = getelementptr inbounds %struct.IndexArrayKeyInfo, ptr %107, i64 %109
  %111 = getelementptr inbounds nuw %struct.IndexArrayKeyInfo, ptr %110, i32 0, i32 2
  store i32 1, ptr %111, align 8
  store i32 0, ptr %21, align 4
  br label %112

112:                                              ; preds = %106, %67, %48
  call void @llvm.lifetime.end.p0(i64 8, ptr %20) #7
  call void @llvm.lifetime.end.p0(i64 8, ptr %19) #7
  call void @llvm.lifetime.end.p0(i64 4, ptr %18) #7
  call void @llvm.lifetime.end.p0(i64 1, ptr %17) #7
  call void @llvm.lifetime.end.p0(i64 1, ptr %16) #7
  call void @llvm.lifetime.end.p0(i64 2, ptr %15) #7
  call void @llvm.lifetime.end.p0(i64 8, ptr %14) #7
  call void @llvm.lifetime.end.p0(i64 1, ptr %13) #7
  call void @llvm.lifetime.end.p0(i64 8, ptr %12) #7
  call void @llvm.lifetime.end.p0(i64 8, ptr %11) #7
  call void @llvm.lifetime.end.p0(i64 8, ptr %10) #7
  %113 = load i32, ptr %21, align 4
  switch i32 %113, label %123 [
    i32 0, label %114
    i32 2, label %118
  ]

114:                                              ; preds = %112
  br label %115

115:                                              ; preds = %114
  %116 = load i32, ptr %8, align 4
  %117 = add i32 %116, 1
  store i32 %117, ptr %8, align 4
  br label %26, !llvm.loop !10

118:                                              ; preds = %112, %26
  %119 = load ptr, ptr %9, align 8
  %120 = call ptr @MemoryContextSwitchTo(ptr noundef %119)
  %121 = load i8, ptr %7, align 1, !range !6, !noundef !7
  %122 = trunc i8 %121 to i1
  store i32 1, ptr %21, align 4
  call void @llvm.lifetime.end.p0(i64 8, ptr %9) #7
  call void @llvm.lifetime.end.p0(i64 4, ptr %8) #7
  call void @llvm.lifetime.end.p0(i64 1, ptr %7) #7
  ret i1 %122

123:                                              ; preds = %112
  unreachable
}