; Function Attrs: nounwind uwtable
define dso_local noundef zeroext i1 @ExecIndexEvalArrayKeys(ptr noundef %0, ptr noundef captures(none) %1, i32 noundef %2) local_unnamed_addr #0 {
  %4 = alloca i8, align 1
  %5 = alloca i16, align 2
  %6 = alloca i8, align 1
  %7 = alloca i8, align 1
  %8 = alloca i32, align 4
  %9 = alloca ptr, align 8
  %10 = alloca ptr, align 8
  %11 = getelementptr inbounds nuw i8, ptr %0, i64 40
  %12 = load ptr, ptr %11, align 8
  %13 = load ptr, ptr @CurrentMemoryContext, align 8
  store ptr %12, ptr @CurrentMemoryContext, align 8
  %14 = icmp slt i32 %2, 1
  br i1 %14, label %.loopexit, label %.lr.ph.preheader

.lr.ph.preheader:                                 ; preds = %3
  %wide.trip.count = zext nneg i32 %2 to i64
  br label %.lr.ph

.lr.ph:                                           ; preds = %.lr.ph.preheader, %37
  %indvars.iv = phi i64 [ 0, %.lr.ph.preheader ], [ %indvars.iv.next, %37 ]
  %15 = getelementptr inbounds nuw %struct.IndexArrayKeyInfo, ptr %1, i64 %indvars.iv
  %16 = load ptr, ptr %15, align 8
  %17 = getelementptr inbounds nuw i8, ptr %15, i64 8
  %18 = load ptr, ptr %17, align 8
  call void @llvm.lifetime.start.p0(i64 1, ptr nonnull %4) #7
  call void @llvm.lifetime.start.p0(i64 2, ptr nonnull %5) #7
  call void @llvm.lifetime.start.p0(i64 1, ptr nonnull %6) #7
  call void @llvm.lifetime.start.p0(i64 1, ptr nonnull %7) #7
  call void @llvm.lifetime.start.p0(i64 4, ptr nonnull %8) #7
  call void @llvm.lifetime.start.p0(i64 8, ptr nonnull %9) #7
  call void @llvm.lifetime.start.p0(i64 8, ptr nonnull %10) #7
  %19 = getelementptr inbounds nuw i8, ptr %18, i64 32
  %20 = load ptr, ptr %19, align 8
  %21 = call i64 %20(ptr noundef %18, ptr noundef %0, ptr noundef nonnull %4) #7
  %22 = load i8, ptr %4, align 1, !range !4, !noundef !5
  %23 = trunc nuw i8 %22 to i1
  br i1 %23, label %.thread, label %24

24:                                               ; preds = %.lr.ph
  %25 = inttoptr i64 %21 to ptr
  %26 = call ptr @pg_detoast_datum(ptr noundef %25) #7
  %27 = getelementptr inbounds nuw i8, ptr %26, i64 12
  %28 = load i32, ptr %27, align 4
  call void @get_typlenbyvalalign(i32 noundef %28, ptr noundef nonnull %5, ptr noundef nonnull %6, ptr noundef nonnull %7) #7
  %29 = load i32, ptr %27, align 4
  %30 = load i16, ptr %5, align 2
  %31 = sext i16 %30 to i32
  %32 = load i8, ptr %6, align 1, !range !4, !noundef !5
  %33 = trunc nuw i8 %32 to i1
  %34 = load i8, ptr %7, align 1
  call void @deconstruct_array(ptr noundef %26, i32 noundef %29, i32 noundef %31, i1 noundef zeroext %33, i8 noundef signext %34, ptr noundef nonnull %9, ptr noundef nonnull %10, ptr noundef nonnull %8) #7
  %35 = load i32, ptr %8, align 4
  %36 = icmp slt i32 %35, 1
  br i1 %36, label %.thread, label %37

37:                                               ; preds = %24
  %38 = load ptr, ptr %9, align 8
  %39 = getelementptr inbounds nuw i8, ptr %15, i64 24
  store ptr %38, ptr %39, align 8
  %40 = load ptr, ptr %10, align 8
  %41 = getelementptr inbounds nuw i8, ptr %15, i64 32
  store ptr %40, ptr %41, align 8
  %42 = getelementptr inbounds nuw i8, ptr %15, i64 20
  store i32 %35, ptr %42, align 4
  %43 = load i64, ptr %38, align 8
  %44 = getelementptr inbounds nuw i8, ptr %16, i64 64
  store i64 %43, ptr %44, align 8
  %45 = load i8, ptr %40, align 1, !range !4, !noundef !5
  %masksel = zext nneg i8 %45 to i32
  %46 = load i32, ptr %16, align 8
  %47 = and i32 %46, -2
  %storemerge = or disjoint i32 %47, %masksel
  store i32 %storemerge, ptr %16, align 8
  %48 = getelementptr inbounds nuw i8, ptr %15, i64 16
  store i32 1, ptr %48, align 8
  call void @llvm.lifetime.end.p0(i64 8, ptr nonnull %10) #7
  call void @llvm.lifetime.end.p0(i64 8, ptr nonnull %9) #7
  call void @llvm.lifetime.end.p0(i64 4, ptr nonnull %8) #7
  call void @llvm.lifetime.end.p0(i64 1, ptr nonnull %7) #7
  call void @llvm.lifetime.end.p0(i64 1, ptr nonnull %6) #7
  call void @llvm.lifetime.end.p0(i64 2, ptr nonnull %5) #7
  call void @llvm.lifetime.end.p0(i64 1, ptr nonnull %4) #7
  %indvars.iv.next = add nuw nsw i64 %indvars.iv, 1
  %exitcond.not = icmp eq i64 %indvars.iv.next, %wide.trip.count
  br i1 %exitcond.not, label %.loopexit, label %.lr.ph, !llvm.loop !10

.thread:                                          ; preds = %.lr.ph, %24
  call void @llvm.lifetime.end.p0(i64 8, ptr nonnull %10) #7
  call void @llvm.lifetime.end.p0(i64 8, ptr nonnull %9) #7
  call void @llvm.lifetime.end.p0(i64 4, ptr nonnull %8) #7
  call void @llvm.lifetime.end.p0(i64 1, ptr nonnull %7) #7
  call void @llvm.lifetime.end.p0(i64 1, ptr nonnull %6) #7
  call void @llvm.lifetime.end.p0(i64 2, ptr nonnull %5) #7
  call void @llvm.lifetime.end.p0(i64 1, ptr nonnull %4) #7
  br label %.loopexit

.loopexit:                                        ; preds = %37, %3, %.thread
  %49 = phi i1 [ false, %.thread ], [ true, %3 ], [ true, %37 ]
  store ptr %13, ptr @CurrentMemoryContext, align 8
  ret i1 %49
}